; ModuleID = 'bench/darktable/original/introspection_mask_manager.c.ll'
source_filename = "bench/darktable/original/introspection_mask_manager.c.ll"
target datalayout = "e-m:e-p270:32:32-p271:32:32-p272:64:64-i64:64-i128:128-f80:128-n8:16:32:64-S128"
target triple = "x86_64-pc-linux-gnu"

%struct.dt_introspection_t = type { i32, i32, ptr, i64, ptr, i64, i64, ptr }
%struct.dt_introspection_type_int_t = type { %struct.dt_introspection_type_header_t, i32, i32, i32 }
%struct.dt_introspection_type_header_t = type { i32, ptr, ptr, ptr, ptr, i64, i64, ptr }
%struct.dt_introspection_type_struct_t = type { %struct.dt_introspection_type_header_t, i64, ptr }

@.str = private unnamed_addr constant [13 x i8] c"mask manager\00", align 1
@introspection = internal global %struct.dt_introspection_t { i32 8, i32 2, ptr @.str.4, i64 4, ptr getelementptr (i8, ptr @introspection_linear, i64 88), i64 1120, i64 688, ptr null }, align 8
@introspection_init.f1 = internal global [2 x ptr] [ptr @introspection_linear, ptr null], align 16
@.str.1 = private unnamed_addr constant [6 x i8] c"dummy\00", align 1
@.str.2 = private unnamed_addr constant [4 x i8] c"int\00", align 1
@.str.3 = private unnamed_addr constant [1 x i8] zeroinitializer, align 1
@.str.4 = private unnamed_addr constant [29 x i8] c"dt_iop_mask_manager_params_t\00", align 1
@introspection_linear = internal global <{ { %struct.dt_introspection_type_int_t, [8 x i8] }, { %struct.dt_introspection_type_struct_t, [8 x i8] }, { %struct.dt_introspection_type_header_t, [24 x i8] } }> <{ { %struct.dt_introspection_type_int_t, [8 x i8] } { %struct.dt_introspection_type_int_t { %struct.dt_introspection_type_header_t { i32 10, ptr @.str.2, ptr @.str.1, ptr @.str.1, ptr @.str.3, i64 4, i64 0, ptr null }, i32 -2147483648, i32 2147483647, i32 0 }, [8 x i8] undef }, { %struct.dt_introspection_type_struct_t, [8 x i8] } { %struct.dt_introspection_type_struct_t { %struct.dt_introspection_type_header_t { i32 17, ptr @.str.4, ptr @.str.3, ptr @.str.3, ptr @.str.3, i64 4, i64 0, ptr null }, i64 1, ptr null }, [8 x i8] undef }, { %struct.dt_introspection_type_header_t, [24 x i8] } { %struct.dt_introspection_type_header_t zeroinitializer, [24 x i8] undef } }>, align 16

; Function Attrs: mustprogress nofree norecurse nosync nounwind willreturn memory(none) uwtable
define noundef i32 @dt_module_dt_version() local_unnamed_addr #0 {
  ret i32 25
}

; Function Attrs: mustprogress nofree norecurse nosync nounwind willreturn memory(none) uwtable
define noundef i32 @dt_module_mod_version() local_unnamed_addr #0 {
  ret i32 2
}

; Function Attrs: nounwind uwtable
define ptr @name() local_unnamed_addr #1 {
  %1 = tail call ptr @dcgettext(ptr noundef null, ptr noundef nonnull @.str, i32 noundef 5) #13
  ret ptr %1
}

; Function Attrs: nounwind
declare ptr @dcgettext(ptr noundef, ptr noundef, i32 noundef) local_unnamed_addr #2

; Function Attrs: mustprogress nofree norecurse nosync nounwind willreturn memory(none) uwtable
define hidden noundef i32 @groups() local_unnamed_addr #0 {
  ret i32 33
}

; Function Attrs: mustprogress nofree norecurse nosync nounwind willreturn memory(none) uwtable
define noundef i32 @flags() local_unnamed_addr #0 {
  ret i32 8352
}

; Function Attrs: mustprogress nofree norecurse nosync nounwind willreturn memory(none) uwtable
define noundef i32 @default_colorspace(ptr nocapture noundef readnone %0, ptr nocapture noundef readnone %1, ptr nocapture noundef readnone %2) local_unnamed_addr #0 {
  ret i32 2
}

; Function Attrs: mustprogress nofree nounwind willreturn memory(write, inaccessiblemem: readwrite) uwtable
define noundef i32 @legacy_params(ptr nocapture noundef readnone %0, ptr nocapture noundef readnone %1, i32 noundef %2, ptr nocapture noundef writeonly %3, ptr nocapture noundef writeonly %4, ptr nocapture noundef writeonly %5) local_unnamed_addr #3 {
  %7 = icmp eq i32 %2, 1
  br i1 %7, label %8, label %10

8:                                                ; preds = %6
  %9 = tail call noalias dereferenceable_or_null(4) ptr @malloc(i64 noundef 4) #14
  store i32 0, ptr %9, align 4, !tbaa !6
  store ptr %9, ptr %3, align 8, !tbaa !11
  store i32 4, ptr %4, align 4, !tbaa !13
  store i32 2, ptr %5, align 4, !tbaa !13
  br label %10

10:                                               ; preds = %8, %6
  %11 = phi i32 [ 0, %8 ], [ 1, %6 ]
  ret i32 %11
}

; Function Attrs: mustprogress nofree nounwind willreturn allockind("alloc,uninitialized") allocsize(0) memory(inaccessiblemem: readwrite)
declare noalias noundef ptr @malloc(i64 noundef) local_unnamed_addr #4

; Function Attrs: nounwind uwtable
define void @process(ptr nocapture noundef readnone %0, ptr nocapture noundef readonly %1, ptr noundef %2, ptr noundef %3, ptr nocapture noundef readnone %4, ptr nocapture noundef readonly %5) local_unnamed_addr #1 {
  %7 = getelementptr inbounds i8, ptr %1, i64 132
  %8 = load i32, ptr %7, align 4, !tbaa !14
  %9 = getelementptr inbounds i8, ptr %5, i64 8
  %10 = load i32, ptr %9, align 4, !tbaa !25
  %11 = sext i32 %10 to i64
  %12 = getelementptr inbounds i8, ptr %5, i64 12
  %13 = load i32, ptr %12, align 4, !tbaa !26
  %14 = sext i32 %13 to i64
  %15 = sext i32 %8 to i64
  %16 = mul nsw i64 %11, %15
  %17 = mul i64 %16, %14
  tail call void @dt_iop_image_copy(ptr noundef %3, ptr noundef %2, i64 noundef %17) #13
  ret void
}

; Function Attrs: mustprogress nofree norecurse nosync nounwind willreturn memory(write, argmem: readwrite, inaccessiblemem: none) uwtable
define void @commit_params(ptr nocapture noundef readnone %0, ptr nocapture noundef readonly %1, ptr nocapture noundef readnone %2, ptr nocapture noundef readonly %3) local_unnamed_addr #5 {
  %5 = getelementptr inbounds i8, ptr %3, i64 16
  %6 = load ptr, ptr %5, align 16, !tbaa !27
  %7 = load i32, ptr %1, align 1
  store i32 %7, ptr %6, align 1
  ret void
}

; Function Attrs: mustprogress nofree nounwind willreturn memory(argmem: write, inaccessiblemem: readwrite) uwtable
define void @init_pipe(ptr nocapture noundef readnone %0, ptr nocapture noundef readnone %1, ptr nocapture noundef writeonly %2) local_unnamed_addr #6 {
  %4 = tail call noalias dereferenceable_or_null(4) ptr @malloc(i64 noundef 4) #14
  %5 = getelementptr inbounds i8, ptr %2, i64 16
  store ptr %4, ptr %5, align 16, !tbaa !27
  ret void
}

; Function Attrs: mustprogress nounwind willreturn uwtable
define void @cleanup_pipe(ptr nocapture noundef readnone %0, ptr nocapture noundef readnone %1, ptr nocapture noundef %2) local_unnamed_addr #7 {
  %4 = getelementptr inbounds i8, ptr %2, i64 16
  %5 = load ptr, ptr %4, align 16, !tbaa !27
  tail call void @free(ptr noundef %5) #13
  store ptr null, ptr %4, align 16, !tbaa !27
  ret void
}

; Function Attrs: mustprogress nounwind willreturn allockind("free") memory(argmem: readwrite, inaccessiblemem: readwrite)
declare void @free(ptr allocptr nocapture noundef) local_unnamed_addr #8

; Function Attrs: mustprogress nofree norecurse nosync nounwind willreturn memory(none) uwtable
define noundef nonnull ptr @get_introspection_linear() local_unnamed_addr #0 {
  ret ptr @introspection_linear
}

; Function Attrs: mustprogress nofree norecurse nosync nounwind willreturn memory(none) uwtable
define noundef nonnull ptr @get_introspection() local_unnamed_addr #0 {
  ret ptr @introspection
}

; Function Attrs: mustprogress nofree norecurse nosync nounwind willreturn memory(readwrite, argmem: none, inaccessiblemem: none) uwtable
define noundef i32 @introspection_init(ptr noundef %0, i32 noundef %1) local_unnamed_addr #9 {
  %3 = load i32, ptr @introspection, align 8, !tbaa !28
  %4 = icmp ne i32 %3, 8
  %5 = icmp ne i32 %1, 8
  %6 = or i1 %5, %4
  br i1 %6, label %8, label %7

7:                                                ; preds = %2
  store ptr %0, ptr getelementptr inbounds (<{ { %struct.dt_introspection_type_int_t, [8 x i8] }, { %struct.dt_introspection_type_struct_t, [8 x i8] }, { %struct.dt_introspection_type_header_t, [24 x i8] } }>, ptr @introspection_linear, i64 0, i32 0, i32 0, i32 0, i32 7), align 8, !tbaa !30
  store ptr %0, ptr getelementptr inbounds (<{ { %struct.dt_introspection_type_int_t, [8 x i8] }, { %struct.dt_introspection_type_struct_t, [8 x i8] }, { %struct.dt_introspection_type_header_t, [24 x i8] } }>, ptr @introspection_linear, i64 0, i32 1, i32 0, i32 0, i32 7), align 16, !tbaa !30
  store ptr %0, ptr getelementptr inbounds (<{ { %struct.dt_introspection_type_int_t, [8 x i8] }, { %struct.dt_introspection_type_struct_t, [8 x i8] }, { %struct.dt_introspection_type_header_t, [24 x i8] } }>, ptr @introspection_linear, i64 0, i32 2, i32 0, i32 7), align 8, !tbaa !30
  store ptr @introspection_init.f1, ptr getelementptr inbounds (<{ { %struct.dt_introspection_type_int_t, [8 x i8] }, { %struct.dt_introspection_type_struct_t, [8 x i8] }, { %struct.dt_introspection_type_header_t, [24 x i8] } }>, ptr @introspection_linear, i64 0, i32 1, i32 0, i32 2), align 16, !tbaa !30
  br label %8

8:                                                ; preds = %7, %2
  %9 = phi i32 [ 0, %7 ], [ 1, %2 ]
  ret i32 %9
}

; Function Attrs: mustprogress nofree nounwind willreturn memory(argmem: read) uwtable
define ptr @get_p(ptr noundef readnone %0, ptr nocapture noundef readonly %1) local_unnamed_addr #10 {
  %3 = tail call i32 @strcmp(ptr noundef nonnull dereferenceable(1) %1, ptr noundef nonnull dereferenceable(6) @.str.1) #15
  %4 = icmp eq i32 %3, 0
  %5 = select i1 %4, ptr %0, ptr null
  ret ptr %5
}

; Function Attrs: mustprogress nofree nounwind willreturn memory(argmem: read)
declare i32 @strcmp(ptr nocapture noundef, ptr nocapture noundef) local_unnamed_addr #11

; Function Attrs: nounwind uwtable
define ptr @get_f(ptr noundef %0) local_unnamed_addr #1 {
  %2 = tail call i32 @g_ascii_strcasecmp(ptr noundef %0, ptr noundef nonnull @.str.1) #13
  %3 = icmp eq i32 %2, 0
  %4 = select i1 %3, ptr @introspection_linear, ptr null
  ret ptr %4
}

declare i32 @g_ascii_strcasecmp(ptr noundef, ptr noundef) local_unnamed_addr #12

declare void @dt_iop_image_copy(ptr noundef, ptr noundef, i64 noundef) local_unnamed_addr #12


!llvm.module.flags = !{!0, !1, !2, !3, !4, !5}

!0 = !{i32 7, !"Dwarf Version", i32 5}
!1 = !{i32 2, !"Debug Info Version", i32 3}
!2 = !{i32 1, !"wchar_size", i32 4}
!3 = !{i32 8, !"PIC Level", i32 2}
!4 = !{i32 7, !"uwtable", i32 2}
!5 = !{i32 7, !"debug-info-assignment-tracking", i1 true}
!6 = !{!7, !8, i64 0}
!7 = !{!"dt_iop_mask_manager_params_v2_t", !8, i64 0}
!8 = !{!"int", !9, i64 0}
!9 = !{!"omnipotent char", !10, i64 0}
!10 = !{!"Simple C/C++ TBAA"}
!11 = !{!12, !12, i64 0}
!12 = !{!"any pointer", !9, i64 0}
!13 = !{!8, !8, i64 0}
!14 = !{!15, !8, i64 132}
!15 = !{!"dt_dev_pixelpipe_iop_t", !12, i64 0, !12, i64 8, !12, i64 16, !12, i64 24, !8, i64 32, !8, i64 36, !16, i64 40, !12, i64 56, !17, i64 64, !9, i64 88, !19, i64 104, !8, i64 108, !8, i64 112, !18, i64 120, !8, i64 128, !8, i64 132, !20, i64 136, !20, i64 156, !20, i64 176, !20, i64 196, !8, i64 216, !8, i64 220, !21, i64 224, !21, i64 352, !12, i64 480}
!16 = !{!"dt_dev_histogram_collection_params_t", !12, i64 0, !8, i64 8}
!17 = !{!"dt_dev_histogram_stats_t", !8, i64 0, !18, i64 8, !8, i64 16, !8, i64 20}
!18 = !{!"long", !9, i64 0}
!19 = !{!"float", !9, i64 0}
!20 = !{!"dt_iop_roi_t", !8, i64 0, !8, i64 4, !8, i64 8, !8, i64 12, !19, i64 16}
!21 = !{!"dt_iop_buffer_dsc_t", !8, i64 0, !8, i64 4, !8, i64 8, !9, i64 12, !22, i64 48, !24, i64 64, !9, i64 96, !8, i64 112}
!22 = !{!"", !23, i64 0, !23, i64 2}
!23 = !{!"short", !9, i64 0}
!24 = !{!"", !8, i64 0, !9, i64 16}
!25 = !{!20, !8, i64 8}
!26 = !{!20, !8, i64 12}
!27 = !{!15, !12, i64 16}
!28 = !{!29, !8, i64 0}
!29 = !{!"dt_introspection_t", !8, i64 0, !8, i64 4, !12, i64 8, !18, i64 16, !12, i64 24, !18, i64 32, !18, i64 40, !12, i64 48}
!30 = !{!9, !9, i64 0}
